target datalayout = "e-m:e-p270:32:32-p271:32:32-p272:64:64-i64:64-i128:128-f80:128-n8:16:32:64-S128"
target triple = "x86_64-unknown-linux-gnu"

@.str = private unnamed_addr constant [3 x i8] c" \09\00", align 1
@.str.12 = private unnamed_addr constant [4 x i8] c" \09\0D\00", align 1

; Function Attrs: mustprogress nounwind uwtable
define internal noundef i32 @_ZN7tinyobjL8parseIntEPPKc(ptr noundef %token) #0 {
entry:
  %token.addr = alloca ptr, align 8
  %i = alloca i32, align 4
  store ptr %token, ptr %token.addr, align 8
  %0 = load ptr, ptr %token.addr, align 8
  %1 = load ptr, ptr %0, align 8
  %call = call i64 @strspn(ptr noundef %1, ptr noundef @.str) #15
  %2 = load ptr, ptr %token.addr, align 8
  %3 = load ptr, ptr %2, align 8
  %add.ptr = getelementptr inbounds i8, ptr %3, i64 %call
  store ptr %add.ptr, ptr %2, align 8
  %4 = load ptr, ptr %token.addr, align 8
  %5 = load ptr, ptr %4, align 8
  %call1 = call i32 @atoi(ptr noundef %5) #15
  store i32 %call1, ptr %i, align 4
  %6 = load ptr, ptr %token.addr, align 8
  %7 = load ptr, ptr %6, align 8
  %call2 = call i64 @strcspn(ptr noundef %7, ptr noundef @.str.12) #15
  %8 = load ptr, ptr %token.addr, align 8
  %9 = load ptr, ptr %8, align 8
  %add.ptr3 = getelementptr inbounds i8, ptr %9, i64 %call2
  store ptr %add.ptr3, ptr %8, align 8
  %10 = load i32, ptr %i, align 4
  ret i32 %10
}