; Function Attrs: mustprogress nofree nounwind willreturn memory(read, argmem: readwrite) uwtable
define internal fastcc noundef i32 @_ZN7tinyobjL8parseIntEPPKc(ptr nocapture noundef %token) unnamed_addr #6 {
entry:
  %0 = load ptr, ptr %token, align 8
  %call = tail call i64 @strspn(ptr noundef %0, ptr noundef nonnull @.str) #25
  %add.ptr = getelementptr inbounds i8, ptr %0, i64 %call
  store ptr %add.ptr, ptr %token, align 8
  %call1 = tail call i32 @atoi(ptr nocapture noundef %add.ptr) #25
  %call2 = tail call i64 @strcspn(ptr noundef %add.ptr, ptr noundef nonnull @.str.12) #25
  %add.ptr3 = getelementptr inbounds i8, ptr %add.ptr, i64 %call2
  store ptr %add.ptr3, ptr %token, align 8
  ret i32 %call1
}